; Function Attrs: mustprogress uwtable
define hidden void @_ZN17expr_substitutionC2ER11ast_managerbb(ptr noundef nonnull align 8 dereferenceable(49) initializes((0, 28), (32, 48)) %0, ptr noundef nonnull align 8 dereferenceable(976) %1, i1 noundef zeroext %2, i1 noundef zeroext %3) unnamed_addr #3 align 2 personality ptr @__gxx_personality_v0 {
  store ptr %1, ptr %0, align 8, !tbaa !25
  %5 = getelementptr inbounds nuw i8, ptr %0, i64 8
  %6 = tail call noalias noundef ptr @_ZN6memory8allocateEm(i64 noundef 128)
  tail call void @llvm.memset.p0.i64(ptr noundef nonnull align 8 dereferenceable(128) %6, i8 0, i64 128, i1 false)
  store ptr %6, ptr %5, align 8, !tbaa !27
  %7 = getelementptr inbounds nuw i8, ptr %0, i64 16
  store i32 8, ptr %7, align 8, !tbaa !30
  %8 = getelementptr inbounds nuw i8, ptr %0, i64 20
  store i32 0, ptr %8, align 4, !tbaa !31
  %9 = getelementptr inbounds nuw i8, ptr %0, i64 24
  store i32 0, ptr %9, align 8, !tbaa !32
  %10 = getelementptr inbounds nuw i8, ptr %0, i64 32
  %11 = getelementptr inbounds nuw i8, ptr %0, i64 48
  %12 = zext i1 %2 to i8
  tail call void @llvm.memset.p0.i64(ptr noundef nonnull align 8 dereferenceable(16) %10, i8 0, i64 16, i1 false)
  %13 = load i8, ptr %11, align 8
  %14 = and i8 %13, -4
  %15 = select i1 %3, i8 2, i8 0
  %16 = or disjoint i8 %15, %12
  %17 = or disjoint i8 %16, %14
  store i8 %17, ptr %11, align 8
  invoke void @_ZN17expr_substitution4initEv(ptr noundef nonnull align 8 dereferenceable(49) %0)
          to label %18 unwind label %19

18:                                               ; preds = %4
  ret void

19:                                               ; preds = %4
  %20 = landingpad { ptr, i32 }
          cleanup
  %21 = getelementptr inbounds nuw i8, ptr %0, i64 40
  tail call void @_ZN10scoped_ptrI7obj_mapI4exprPN18dependency_managerIN11ast_manager22expr_dependency_configEE10dependencyEEED2Ev(ptr noundef nonnull align 8 dereferenceable(8) %21) #21
  tail call void @_ZN10scoped_ptrI7obj_mapI4exprP3appEED2Ev(ptr noundef nonnull align 8 dereferenceable(8) %10) #21
  tail call void @_ZN7obj_mapI4exprPS0_ED2Ev(ptr noundef nonnull align 8 dereferenceable(24) %5) #21
  resume { ptr, i32 } %20
}